; ModuleID = '49/1173.c'
source_filename = "49/1173.c"
target datalayout = "e-m:e-p270:32:32-p271:32:32-p272:64:64-i64:64-f80:128-n8:16:32:64-S128"
target triple = "x86_64-pc-linux-gnu"

@.str = private unnamed_addr constant [2 x i8] c"\0A\00", align 1

; Function Attrs: noinline nounwind uwtable
define dso_local i32 @main() #0 {
  %1 = alloca i32, align 4
  %2 = alloca i32, align 4
  %3 = alloca i32, align 4
  %4 = alloca i32, align 4
  %5 = alloca i32, align 4
  %6 = alloca i32, align 4
  %7 = alloca i32, align 4
  %8 = alloca [500 x i8], align 16
  store i32 0, i32* %1, align 4
  %9 = getelementptr inbounds [500 x i8], [500 x i8]* %8, i64 0, i64 0
  %10 = call i32 (i8*, ...) bitcast (i32 (...)* @gets to i32 (i8*, ...)*)(i8* %9)
  store i32 0, i32* %2, align 4
  br label %11

11:                                               ; preds = %19, %0
  %12 = load i32, i32* %2, align 4
  %13 = sext i32 %12 to i64
  %14 = getelementptr inbounds [500 x i8], [500 x i8]* %8, i64 0, i64 %13
  %15 = load i8, i8* %14, align 1
  %16 = sext i8 %15 to i32
  %17 = icmp ne i32 %16, 0
  br i1 %17, label %18, label %22

18:                                               ; preds = %11
  br label %19

19:                                               ; preds = %18
  %20 = load i32, i32* %2, align 4
  %21 = add nsw i32 %20, 1
  store i32 %21, i32* %2, align 4
  br label %11

22:                                               ; preds = %11
  %23 = load i32, i32* %2, align 4
  store i32 %23, i32* %3, align 4
  store i32 2, i32* %5, align 4
  br label %24

24:                                               ; preds = %93, %22
  %25 = load i32, i32* %5, align 4
  %26 = load i32, i32* %3, align 4
  %27 = icmp sle i32 %25, %26
  br i1 %27, label %28, label %96

28:                                               ; preds = %24
  store i32 0, i32* %2, align 4
  br label %29

29:                                               ; preds = %89, %28
  %30 = load i32, i32* %2, align 4
  %31 = load i32, i32* %3, align 4
  %32 = load i32, i32* %5, align 4
  %33 = sub nsw i32 %31, %32
  %34 = add nsw i32 %33, 1
  %35 = icmp slt i32 %30, %34
  br i1 %35, label %36, label %92

36:                                               ; preds = %29
  store i32 0, i32* %6, align 4
  store i32 1, i32* %4, align 4
  br label %37

37:                                               ; preds = %62, %36
  %38 = load i32, i32* %6, align 4
  %39 = load i32, i32* %5, align 4
  %40 = icmp slt i32 %38, %39
  br i1 %40, label %41, label %65

41:                                               ; preds = %37
  %42 = load i32, i32* %2, align 4
  %43 = load i32, i32* %6, align 4
  %44 = add nsw i32 %42, %43
  %45 = sext i32 %44 to i64
  %46 = getelementptr inbounds [500 x i8], [500 x i8]* %8, i64 0, i64 %45
  %47 = load i8, i8* %46, align 1
  %48 = sext i8 %47 to i32
  %49 = load i32, i32* %2, align 4
  %50 = load i32, i32* %5, align 4
  %51 = add nsw i32 %49, %50
  %52 = load i32, i32* %6, align 4
  %53 = sub nsw i32 %51, %52
  %54 = sub nsw i32 %53, 1
  %55 = sext i32 %54 to i64
  %56 = getelementptr inbounds [500 x i8], [500 x i8]* %8, i64 0, i64 %55
  %57 = load i8, i8* %56, align 1
  %58 = sext i8 %57 to i32
  %59 = icmp ne i32 %48, %58
  br i1 %59, label %60, label %61

60:                                               ; preds = %41
  store i32 0, i32* %4, align 4
  br label %65

61:                                               ; preds = %41
  br label %62

62:                                               ; preds = %61
  %63 = load i32, i32* %6, align 4
  %64 = add nsw i32 %63, 1
  store i32 %64, i32* %6, align 4
  br label %37

65:                                               ; preds = %60, %37
  %66 = load i32, i32* %4, align 4
  %67 = icmp eq i32 %66, 1
  br i1 %67, label %68, label %88

68:                                               ; preds = %65
  %69 = load i32, i32* %2, align 4
  store i32 %69, i32* %7, align 4
  br label %70

70:                                               ; preds = %83, %68
  %71 = load i32, i32* %7, align 4
  %72 = load i32, i32* %2, align 4
  %73 = load i32, i32* %5, align 4
  %74 = add nsw i32 %72, %73
  %75 = icmp slt i32 %71, %74
  br i1 %75, label %76, label %86

76:                                               ; preds = %70
  %77 = load i32, i32* %7, align 4
  %78 = sext i32 %77 to i64
  %79 = getelementptr inbounds [500 x i8], [500 x i8]* %8, i64 0, i64 %78
  %80 = load i8, i8* %79, align 1
  %81 = sext i8 %80 to i32
  %82 = call i32 @putchar(i32 %81)
  br label %83

83:                                               ; preds = %76
  %84 = load i32, i32* %7, align 4
  %85 = add nsw i32 %84, 1
  store i32 %85, i32* %7, align 4
  br label %70

86:                                               ; preds = %70
  %87 = call i32 (i8*, ...) @printf(i8* getelementptr inbounds ([2 x i8], [2 x i8]* @.str, i64 0, i64 0))
  br label %88

88:                                               ; preds = %86, %65
  br label %89

89:                                               ; preds = %88
  %90 = load i32, i32* %2, align 4
  %91 = add nsw i32 %90, 1
  store i32 %91, i32* %2, align 4
  br label %29

92:                                               ; preds = %29
  br label %93

93:                                               ; preds = %92
  %94 = load i32, i32* %5, align 4
  %95 = add nsw i32 %94, 1
  store i32 %95, i32* %5, align 4
  br label %24

96:                                               ; preds = %24
  ret i32 0
}

declare dso_local i32 @gets(...) #1

declare dso_local i32 @putchar(i32) #1

declare dso_local i32 @printf(i8*, ...) #1


!llvm.module.flags = !{!0}
!llvm.ident = !{!1}

!0 = !{i32 1, !"wchar_size", i32 4}
!1 = !{!"clang version 10.0.0-4ubuntu1 "}
